target datalayout = "e-m:e-p270:32:32-p271:32:32-p272:64:64-i64:64-i128:128-f80:128-n8:16:32:64-S128"
target triple = "x86_64-pc-linux-gnu"

%struct.AF_StyleClassRec_ = type { i32, i32, i32, i32, i32 }
%struct.FT_FaceRec_ = type { i64, i64, i64, i64, i64, ptr, ptr, i32, ptr, i32, ptr, %struct.FT_Generic_, %struct.FT_BBox_, i16, i16, i16, i16, i16, i16, i16, i16, ptr, ptr, ptr, ptr, ptr, ptr, %struct.FT_ListRec_, %struct.FT_Generic_, ptr, ptr }
%struct.FT_BBox_ = type { i64, i64, i64, i64 }
%struct.FT_ListRec_ = type { ptr, ptr }
%struct.FT_Generic_ = type { ptr, ptr }
%struct.AF_FaceGlobalsRec_ = type { ptr, i32, ptr, ptr, ptr, i32, [87 x ptr], i16, i64, i64, i64, i64, i64, ptr }
%struct.AF_WritingSystemClassRec_ = type { i32, i64, ptr, ptr, ptr, ptr, ptr, ptr }

@af_writing_system_classes = hidden constant [5 x ptr] [ptr @af_dummy_writing_system_class, ptr @af_latin_writing_system_class, ptr @af_cjk_writing_system_class, ptr @af_indic_writing_system_class, ptr null], align 16

; Function Attrs: nounwind uwtable
define internal void @af_face_globals_free(ptr noundef %0) #0 {
  %2 = alloca ptr, align 8
  %3 = alloca ptr, align 8
  %4 = alloca ptr, align 8
  %5 = alloca i32, align 4
  %6 = alloca ptr, align 8
  %7 = alloca ptr, align 8
  store ptr %0, ptr %2, align 8, !tbaa !153
  call void @llvm.lifetime.start.p0(i64 8, ptr %3) #10
  %8 = load ptr, ptr %2, align 8, !tbaa !153
  store ptr %8, ptr %3, align 8, !tbaa !124
  %9 = load ptr, ptr %3, align 8, !tbaa !124
  %10 = icmp ne ptr %9, null
  br i1 %10, label %11, label %85

11:                                               ; preds = %1
  call void @llvm.lifetime.start.p0(i64 8, ptr %4) #10
  %12 = load ptr, ptr %3, align 8, !tbaa !124
  %13 = getelementptr inbounds nuw %struct.AF_FaceGlobalsRec_, ptr %12, i32 0, i32 0
  %14 = load ptr, ptr %13, align 8, !tbaa !146
  %15 = getelementptr inbounds nuw %struct.FT_FaceRec_, ptr %14, i32 0, i32 25
  %16 = load ptr, ptr %15, align 8, !tbaa !174
  store ptr %16, ptr %4, align 8, !tbaa !108
  call void @llvm.lifetime.start.p0(i64 4, ptr %5) #10
  store i32 0, ptr %5, align 4, !tbaa !43
  br label %17

17:                                               ; preds = %70, %11
  %18 = load i32, ptr %5, align 4, !tbaa !43
  %19 = icmp ult i32 %18, 87
  br i1 %19, label %20, label %73

20:                                               ; preds = %17
  %21 = load ptr, ptr %3, align 8, !tbaa !124
  %22 = getelementptr inbounds nuw %struct.AF_FaceGlobalsRec_, ptr %21, i32 0, i32 6
  %23 = load i32, ptr %5, align 4, !tbaa !43
  %24 = zext i32 %23 to i64
  %25 = getelementptr inbounds nuw [87 x ptr], ptr %22, i64 0, i64 %24
  %26 = load ptr, ptr %25, align 8, !tbaa !3
  %27 = icmp ne ptr %26, null
  br i1 %27, label %28, label %69

28:                                               ; preds = %20
  call void @llvm.lifetime.start.p0(i64 8, ptr %6) #10
  %29 = load i32, ptr %5, align 4, !tbaa !43
  %30 = zext i32 %29 to i64
  %31 = getelementptr inbounds nuw [88 x ptr], ptr @af_style_classes, i64 0, i64 %30
  %32 = load ptr, ptr %31, align 8, !tbaa !125
  store ptr %32, ptr %6, align 8, !tbaa !125
  call void @llvm.lifetime.start.p0(i64 8, ptr %7) #10
  %33 = load ptr, ptr %6, align 8, !tbaa !125
  %34 = getelementptr inbounds nuw %struct.AF_StyleClassRec_, ptr %33, i32 0, i32 1
  %35 = load i32, ptr %34, align 4, !tbaa !478
  %36 = zext i32 %35 to i64
  %37 = getelementptr inbounds nuw [5 x ptr], ptr @af_writing_system_classes, i64 0, i64 %36
  %38 = load ptr, ptr %37, align 8, !tbaa !479
  store ptr %38, ptr %7, align 8, !tbaa !479
  %39 = load ptr, ptr %7, align 8, !tbaa !479
  %40 = getelementptr inbounds nuw %struct.AF_WritingSystemClassRec_, ptr %39, i32 0, i32 4
  %41 = load ptr, ptr %40, align 8, !tbaa !525
  %42 = icmp ne ptr %41, null
  br i1 %42, label %43, label %53

43:                                               ; preds = %28
  %44 = load ptr, ptr %7, align 8, !tbaa !479
  %45 = getelementptr inbounds nuw %struct.AF_WritingSystemClassRec_, ptr %44, i32 0, i32 4
  %46 = load ptr, ptr %45, align 8, !tbaa !525
  %47 = load ptr, ptr %3, align 8, !tbaa !124
  %48 = getelementptr inbounds nuw %struct.AF_FaceGlobalsRec_, ptr %47, i32 0, i32 6
  %49 = load i32, ptr %5, align 4, !tbaa !43
  %50 = zext i32 %49 to i64
  %51 = getelementptr inbounds nuw [87 x ptr], ptr %48, i64 0, i64 %50
  %52 = load ptr, ptr %51, align 8, !tbaa !3
  call void %46(ptr noundef %52)
  br label %53

53:                                               ; preds = %43, %28
  br label %54

54:                                               ; preds = %53
  %55 = load ptr, ptr %4, align 8, !tbaa !108
  %56 = load ptr, ptr %3, align 8, !tbaa !124
  %57 = getelementptr inbounds nuw %struct.AF_FaceGlobalsRec_, ptr %56, i32 0, i32 6
  %58 = load i32, ptr %5, align 4, !tbaa !43
  %59 = zext i32 %58 to i64
  %60 = getelementptr inbounds nuw [87 x ptr], ptr %57, i64 0, i64 %59
  %61 = load ptr, ptr %60, align 8, !tbaa !3
  call void @ft_mem_free(ptr noundef %55, ptr noundef %61)
  %62 = load ptr, ptr %3, align 8, !tbaa !124
  %63 = getelementptr inbounds nuw %struct.AF_FaceGlobalsRec_, ptr %62, i32 0, i32 6
  %64 = load i32, ptr %5, align 4, !tbaa !43
  %65 = zext i32 %64 to i64
  %66 = getelementptr inbounds nuw [87 x ptr], ptr %63, i64 0, i64 %65
  store ptr null, ptr %66, align 8, !tbaa !3
  br label %67

67:                                               ; preds = %54
  br label %68

68:                                               ; preds = %67
  call void @llvm.lifetime.end.p0(i64 8, ptr %7) #10
  call void @llvm.lifetime.end.p0(i64 8, ptr %6) #10
  br label %69

69:                                               ; preds = %68, %20
  br label %70

70:                                               ; preds = %69
  %71 = load i32, ptr %5, align 4, !tbaa !43
  %72 = add i32 %71, 1
  store i32 %72, ptr %5, align 4, !tbaa !43
  br label %17, !llvm.loop !543

73:                                               ; preds = %17
  %74 = load ptr, ptr %3, align 8, !tbaa !124
  %75 = getelementptr inbounds nuw %struct.AF_FaceGlobalsRec_, ptr %74, i32 0, i32 3
  %76 = load ptr, ptr %75, align 8, !tbaa !130
  call void @hb_font_destroy(ptr noundef %76)
  %77 = load ptr, ptr %3, align 8, !tbaa !124
  %78 = getelementptr inbounds nuw %struct.AF_FaceGlobalsRec_, ptr %77, i32 0, i32 4
  %79 = load ptr, ptr %78, align 8, !tbaa !163
  call void @hb_buffer_destroy(ptr noundef %79)
  br label %80

80:                                               ; preds = %73
  %81 = load ptr, ptr %4, align 8, !tbaa !108
  %82 = load ptr, ptr %3, align 8, !tbaa !124
  call void @ft_mem_free(ptr noundef %81, ptr noundef %82)
  store ptr null, ptr %3, align 8, !tbaa !124
  br label %83

83:                                               ; preds = %80
  br label %84

84:                                               ; preds = %83
  call void @llvm.lifetime.end.p0(i64 4, ptr %5) #10
  call void @llvm.lifetime.end.p0(i64 8, ptr %4) #10
  br label %85

85:                                               ; preds = %84, %1
  call void @llvm.lifetime.end.p0(i64 8, ptr %3) #10
  ret void
}