; Function Attrs: nounwind uwtable
define internal void @af_face_globals_free(ptr noundef %0) #0 {
  %.not = icmp eq ptr %0, null
  br i1 %.not, label %29, label %2

2:                                                ; preds = %1
  %3 = load ptr, ptr %0, align 8, !tbaa !248
  %4 = getelementptr inbounds nuw i8, ptr %3, i64 184
  %5 = load ptr, ptr %4, align 8, !tbaa !120
  %6 = getelementptr inbounds nuw i8, ptr %0, i64 48
  br label %7

7:                                                ; preds = %2, %23
  %indvars.iv = phi i64 [ 0, %2 ], [ %indvars.iv.next, %23 ]
  %8 = getelementptr inbounds nuw [87 x ptr], ptr %6, i64 0, i64 %indvars.iv
  %9 = load ptr, ptr %8, align 8, !tbaa !243
  %.not24 = icmp eq ptr %9, null
  br i1 %.not24, label %23, label %10

10:                                               ; preds = %7
  %11 = getelementptr inbounds nuw [88 x ptr], ptr @af_style_classes, i64 0, i64 %indvars.iv
  %12 = load ptr, ptr %11, align 8, !tbaa !244
  %13 = getelementptr inbounds nuw i8, ptr %12, i64 4
  %14 = load i32, ptr %13, align 4, !tbaa !245
  %15 = zext i32 %14 to i64
  %16 = getelementptr inbounds nuw [5 x ptr], ptr @af_writing_system_classes, i64 0, i64 %15
  %17 = load ptr, ptr %16, align 8, !tbaa !246
  %18 = getelementptr inbounds nuw i8, ptr %17, i64 32
  %19 = load ptr, ptr %18, align 8, !tbaa !254
  %.not25 = icmp eq ptr %19, null
  br i1 %.not25, label %21, label %20

20:                                               ; preds = %10
  tail call void %19(ptr noundef nonnull %9) #20
  %.pre = load ptr, ptr %8, align 8, !tbaa !243
  br label %21

21:                                               ; preds = %10, %20
  %22 = phi ptr [ %9, %10 ], [ %.pre, %20 ]
  tail call void @ft_mem_free(ptr noundef %5, ptr noundef %22) #20
  store ptr null, ptr %8, align 8, !tbaa !243
  br label %23

23:                                               ; preds = %7, %21
  %indvars.iv.next = add nuw nsw i64 %indvars.iv, 1
  %exitcond.not = icmp eq i64 %indvars.iv.next, 87
  br i1 %exitcond.not, label %24, label %7, !llvm.loop !493

24:                                               ; preds = %23
  %25 = getelementptr inbounds nuw i8, ptr %0, i64 24
  %26 = load ptr, ptr %25, align 8, !tbaa !294
  tail call void @hb_font_destroy(ptr noundef %26) #20
  %27 = getelementptr inbounds nuw i8, ptr %0, i64 32
  %28 = load ptr, ptr %27, align 8, !tbaa !308
  tail call void @hb_buffer_destroy(ptr noundef %28) #20
  tail call void @ft_mem_free(ptr noundef %5, ptr noundef nonnull %0) #20
  br label %29

29:                                               ; preds = %24, %1
  ret void
}